; ModuleID = '60/1749.c'
source_filename = "60/1749.c"
target datalayout = "e-m:e-p270:32:32-p271:32:32-p272:64:64-i64:64-f80:128-n8:16:32:64-S128"
target triple = "x86_64-pc-linux-gnu"

@.str = private unnamed_addr constant [3 x i8] c"%d\00", align 1
@.str.1 = private unnamed_addr constant [7 x i8] c"%d %d\0A\00", align 1
@.str.2 = private unnamed_addr constant [7 x i8] c"empty\0A\00", align 1

; Function Attrs: noinline nounwind uwtable
define dso_local i32 @main() #0 {
  %1 = alloca i32, align 4
  %2 = alloca i32, align 4
  %3 = alloca i32, align 4
  %4 = alloca i32, align 4
  %5 = alloca i32, align 4
  %6 = alloca i32, align 4
  %7 = alloca i32, align 4
  %8 = alloca [100 x i32], align 16
  %9 = alloca [100 x i32], align 16
  store i32 0, i32* %1, align 4
  store i32 0, i32* %7, align 4
  %10 = call i32 (i8*, ...) @__isoc99_scanf(i8* getelementptr inbounds ([3 x i8], [3 x i8]* @.str, i64 0, i64 0), i32* %2)
  %11 = getelementptr inbounds [100 x i32], [100 x i32]* %8, i64 0, i64 0
  %12 = bitcast i32* %11 to i8*
  call void @llvm.memset.p0i8.i64(i8* align 16 %12, i8 0, i64 400, i1 false)
  store i32 0, i32* %3, align 4
  br label %13

13:                                               ; preds = %20, %0
  %14 = load i32, i32* %3, align 4
  %15 = icmp slt i32 %14, 100
  br i1 %15, label %16, label %23

16:                                               ; preds = %13
  %17 = load i32, i32* %3, align 4
  %18 = sext i32 %17 to i64
  %19 = getelementptr inbounds [100 x i32], [100 x i32]* %9, i64 0, i64 %18
  store i32 1, i32* %19, align 4
  br label %20

20:                                               ; preds = %16
  %21 = load i32, i32* %3, align 4
  %22 = add nsw i32 %21, 1
  store i32 %22, i32* %3, align 4
  br label %13

23:                                               ; preds = %13
  store i32 0, i32* %4, align 4
  store i32 3, i32* %3, align 4
  br label %24

24:                                               ; preds = %34, %23
  %25 = load i32, i32* %3, align 4
  %26 = load i32, i32* %2, align 4
  %27 = icmp sle i32 %25, %26
  br i1 %27, label %28, label %37

28:                                               ; preds = %24
  %29 = load i32, i32* %3, align 4
  %30 = load i32, i32* %4, align 4
  %31 = add nsw i32 %30, 1
  store i32 %31, i32* %4, align 4
  %32 = sext i32 %30 to i64
  %33 = getelementptr inbounds [100 x i32], [100 x i32]* %8, i64 0, i64 %32
  store i32 %29, i32* %33, align 4
  br label %34

34:                                               ; preds = %28
  %35 = load i32, i32* %3, align 4
  %36 = add nsw i32 %35, 2
  store i32 %36, i32* %3, align 4
  br label %24

37:                                               ; preds = %24
  store i32 0, i32* %3, align 4
  br label %38

38:                                               ; preds = %50, %37
  %39 = load i32, i32* %3, align 4
  %40 = icmp slt i32 %39, 100
  br i1 %40, label %41, label %53

41:                                               ; preds = %38
  %42 = load i32, i32* %3, align 4
  %43 = sext i32 %42 to i64
  %44 = getelementptr inbounds [100 x i32], [100 x i32]* %8, i64 0, i64 %43
  %45 = load i32, i32* %44, align 4
  %46 = icmp eq i32 %45, 0
  br i1 %46, label %47, label %49

47:                                               ; preds = %41
  %48 = load i32, i32* %3, align 4
  store i32 %48, i32* %6, align 4
  br label %53

49:                                               ; preds = %41
  br label %50

50:                                               ; preds = %49
  %51 = load i32, i32* %3, align 4
  %52 = add nsw i32 %51, 1
  store i32 %52, i32* %3, align 4
  br label %38

53:                                               ; preds = %47, %38
  store i32 0, i32* %3, align 4
  br label %54

54:                                               ; preds = %88, %53
  %55 = load i32, i32* %3, align 4
  %56 = load i32, i32* %6, align 4
  %57 = icmp slt i32 %55, %56
  br i1 %57, label %58, label %91

58:                                               ; preds = %54
  %59 = load i32, i32* %3, align 4
  %60 = sext i32 %59 to i64
  %61 = getelementptr inbounds [100 x i32], [100 x i32]* %8, i64 0, i64 %60
  %62 = load i32, i32* %61, align 4
  %63 = sitofp i32 %62 to double
  %64 = call double @sqrt(double %63) #4
  %65 = fadd double %64, 1.000000e+00
  %66 = fptosi double %65 to i32
  store i32 %66, i32* %5, align 4
  store i32 2, i32* %4, align 4
  br label %67

67:                                               ; preds = %84, %58
  %68 = load i32, i32* %4, align 4
  %69 = load i32, i32* %5, align 4
  %70 = icmp sle i32 %68, %69
  br i1 %70, label %71, label %87

71:                                               ; preds = %67
  %72 = load i32, i32* %3, align 4
  %73 = sext i32 %72 to i64
  %74 = getelementptr inbounds [100 x i32], [100 x i32]* %8, i64 0, i64 %73
  %75 = load i32, i32* %74, align 4
  %76 = load i32, i32* %4, align 4
  %77 = srem i32 %75, %76
  %78 = icmp eq i32 %77, 0
  br i1 %78, label %79, label %83

79:                                               ; preds = %71
  %80 = load i32, i32* %3, align 4
  %81 = sext i32 %80 to i64
  %82 = getelementptr inbounds [100 x i32], [100 x i32]* %9, i64 0, i64 %81
  store i32 0, i32* %82, align 4
  br label %87

83:                                               ; preds = %71
  br label %84

84:                                               ; preds = %83
  %85 = load i32, i32* %4, align 4
  %86 = add nsw i32 %85, 1
  store i32 %86, i32* %4, align 4
  br label %67

87:                                               ; preds = %79, %67
  br label %88

88:                                               ; preds = %87
  %89 = load i32, i32* %3, align 4
  %90 = add nsw i32 %89, 1
  store i32 %90, i32* %3, align 4
  br label %54

91:                                               ; preds = %54
  store i32 0, i32* %3, align 4
  br label %92

92:                                               ; preds = %124, %91
  %93 = load i32, i32* %3, align 4
  %94 = load i32, i32* %6, align 4
  %95 = sub nsw i32 %94, 1
  %96 = icmp slt i32 %93, %95
  br i1 %96, label %97, label %127

97:                                               ; preds = %92
  %98 = load i32, i32* %3, align 4
  %99 = sext i32 %98 to i64
  %100 = getelementptr inbounds [100 x i32], [100 x i32]* %9, i64 0, i64 %99
  %101 = load i32, i32* %100, align 4
  %102 = icmp eq i32 %101, 1
  br i1 %102, label %103, label %123

103:                                              ; preds = %97
  %104 = load i32, i32* %3, align 4
  %105 = add nsw i32 %104, 1
  %106 = sext i32 %105 to i64
  %107 = getelementptr inbounds [100 x i32], [100 x i32]* %9, i64 0, i64 %106
  %108 = load i32, i32* %107, align 4
  %109 = icmp eq i32 %108, 1
  br i1 %109, label %110, label %123

110:                                              ; preds = %103
  %111 = load i32, i32* %7, align 4
  %112 = add nsw i32 %111, 1
  store i32 %112, i32* %7, align 4
  %113 = load i32, i32* %3, align 4
  %114 = sext i32 %113 to i64
  %115 = getelementptr inbounds [100 x i32], [100 x i32]* %8, i64 0, i64 %114
  %116 = load i32, i32* %115, align 4
  %117 = load i32, i32* %3, align 4
  %118 = add nsw i32 %117, 1
  %119 = sext i32 %118 to i64
  %120 = getelementptr inbounds [100 x i32], [100 x i32]* %8, i64 0, i64 %119
  %121 = load i32, i32* %120, align 4
  %122 = call i32 (i8*, ...) @printf(i8* getelementptr inbounds ([7 x i8], [7 x i8]* @.str.1, i64 0, i64 0), i32 %116, i32 %121)
  br label %123

123:                                              ; preds = %110, %103, %97
  br label %124

124:                                              ; preds = %123
  %125 = load i32, i32* %3, align 4
  %126 = add nsw i32 %125, 1
  store i32 %126, i32* %3, align 4
  br label %92

127:                                              ; preds = %92
  %128 = load i32, i32* %7, align 4
  %129 = icmp eq i32 %128, 0
  br i1 %129, label %130, label %132

130:                                              ; preds = %127
  %131 = call i32 (i8*, ...) @printf(i8* getelementptr inbounds ([7 x i8], [7 x i8]* @.str.2, i64 0, i64 0))
  br label %132

132:                                              ; preds = %130, %127
  ret i32 0
}

declare dso_local i32 @__isoc99_scanf(i8*, ...) #1

; Function Attrs: argmemonly nounwind willreturn
declare void @llvm.memset.p0i8.i64(i8* nocapture writeonly, i8, i64, i1 immarg) #2

; Function Attrs: nounwind
declare dso_local double @sqrt(double) #3

declare dso_local i32 @printf(i8*, ...) #1


!llvm.module.flags = !{!0}
!llvm.ident = !{!1}

!0 = !{i32 1, !"wchar_size", i32 4}
!1 = !{!"clang version 10.0.0-4ubuntu1 "}
