; ModuleID = 'source-C-CXX/59/1749.c'
source_filename = "source-C-CXX/59/1749.c"
target datalayout = "e-m:e-p270:32:32-p271:32:32-p272:64:64-i64:64-f80:128-n8:16:32:64-S128"
target triple = "x86_64-pc-linux-gnu"

@.str = private unnamed_addr constant [3 x i8] c"%d\00", align 1
@.str.1 = private unnamed_addr constant [7 x i8] c"%d %d\0A\00", align 1
@str = private unnamed_addr constant [6 x i8] c"empty\00", align 1

; Function Attrs: nofree nounwind sspstrong uwtable
define dso_local i32 @main() local_unnamed_addr #0 {
  %1 = alloca i32, align 4
  %2 = alloca [100 x i32], align 16
  %3 = alloca [100 x i32], align 16
  %4 = bitcast i32* %1 to i8*
  call void @llvm.lifetime.start.p0i8(i64 4, i8* nonnull %4) #6
  %5 = call i32 (i8*, ...) @__isoc99_scanf(i8* getelementptr inbounds ([3 x i8], [3 x i8]* @.str, i64 0, i64 0), i32* nonnull %1)
  %6 = bitcast [100 x i32]* %2 to i8*
  call void @llvm.lifetime.start.p0i8(i64 400, i8* nonnull %6) #6
  %7 = bitcast [100 x i32]* %3 to i8*
  call void @llvm.lifetime.start.p0i8(i64 400, i8* nonnull %7) #6
  call void @llvm.memset.p0i8.i64(i8* noundef nonnull align 16 dereferenceable(400) %6, i8 0, i64 400, i1 false)
  %8 = bitcast [100 x i32]* %3 to <4 x i32>*
  store <4 x i32> <i32 1, i32 1, i32 1, i32 1>, <4 x i32>* %8, align 16, !tbaa !5
  %9 = getelementptr inbounds [100 x i32], [100 x i32]* %3, i64 0, i64 4
  %10 = bitcast i32* %9 to <4 x i32>*
  store <4 x i32> <i32 1, i32 1, i32 1, i32 1>, <4 x i32>* %10, align 16, !tbaa !5
  %11 = getelementptr inbounds [100 x i32], [100 x i32]* %3, i64 0, i64 8
  %12 = bitcast i32* %11 to <4 x i32>*
  store <4 x i32> <i32 1, i32 1, i32 1, i32 1>, <4 x i32>* %12, align 16, !tbaa !5
  %13 = getelementptr inbounds [100 x i32], [100 x i32]* %3, i64 0, i64 12
  %14 = bitcast i32* %13 to <4 x i32>*
  store <4 x i32> <i32 1, i32 1, i32 1, i32 1>, <4 x i32>* %14, align 16, !tbaa !5
  %15 = getelementptr inbounds [100 x i32], [100 x i32]* %3, i64 0, i64 16
  %16 = bitcast i32* %15 to <4 x i32>*
  store <4 x i32> <i32 1, i32 1, i32 1, i32 1>, <4 x i32>* %16, align 16, !tbaa !5
  %17 = getelementptr inbounds [100 x i32], [100 x i32]* %3, i64 0, i64 20
  %18 = bitcast i32* %17 to <4 x i32>*
  store <4 x i32> <i32 1, i32 1, i32 1, i32 1>, <4 x i32>* %18, align 16, !tbaa !5
  %19 = getelementptr inbounds [100 x i32], [100 x i32]* %3, i64 0, i64 24
  %20 = bitcast i32* %19 to <4 x i32>*
  store <4 x i32> <i32 1, i32 1, i32 1, i32 1>, <4 x i32>* %20, align 16, !tbaa !5
  %21 = getelementptr inbounds [100 x i32], [100 x i32]* %3, i64 0, i64 28
  %22 = bitcast i32* %21 to <4 x i32>*
  store <4 x i32> <i32 1, i32 1, i32 1, i32 1>, <4 x i32>* %22, align 16, !tbaa !5
  %23 = getelementptr inbounds [100 x i32], [100 x i32]* %3, i64 0, i64 32
  %24 = bitcast i32* %23 to <4 x i32>*
  store <4 x i32> <i32 1, i32 1, i32 1, i32 1>, <4 x i32>* %24, align 16, !tbaa !5
  %25 = getelementptr inbounds [100 x i32], [100 x i32]* %3, i64 0, i64 36
  %26 = bitcast i32* %25 to <4 x i32>*
  store <4 x i32> <i32 1, i32 1, i32 1, i32 1>, <4 x i32>* %26, align 16, !tbaa !5
  %27 = getelementptr inbounds [100 x i32], [100 x i32]* %3, i64 0, i64 40
  %28 = bitcast i32* %27 to <4 x i32>*
  store <4 x i32> <i32 1, i32 1, i32 1, i32 1>, <4 x i32>* %28, align 16, !tbaa !5
  %29 = getelementptr inbounds [100 x i32], [100 x i32]* %3, i64 0, i64 44
  %30 = bitcast i32* %29 to <4 x i32>*
  store <4 x i32> <i32 1, i32 1, i32 1, i32 1>, <4 x i32>* %30, align 16, !tbaa !5
  %31 = getelementptr inbounds [100 x i32], [100 x i32]* %3, i64 0, i64 48
  %32 = bitcast i32* %31 to <4 x i32>*
  store <4 x i32> <i32 1, i32 1, i32 1, i32 1>, <4 x i32>* %32, align 16, !tbaa !5
  %33 = getelementptr inbounds [100 x i32], [100 x i32]* %3, i64 0, i64 52
  %34 = bitcast i32* %33 to <4 x i32>*
  store <4 x i32> <i32 1, i32 1, i32 1, i32 1>, <4 x i32>* %34, align 16, !tbaa !5
  %35 = getelementptr inbounds [100 x i32], [100 x i32]* %3, i64 0, i64 56
  %36 = bitcast i32* %35 to <4 x i32>*
  store <4 x i32> <i32 1, i32 1, i32 1, i32 1>, <4 x i32>* %36, align 16, !tbaa !5
  %37 = getelementptr inbounds [100 x i32], [100 x i32]* %3, i64 0, i64 60
  %38 = bitcast i32* %37 to <4 x i32>*
  store <4 x i32> <i32 1, i32 1, i32 1, i32 1>, <4 x i32>* %38, align 16, !tbaa !5
  %39 = getelementptr inbounds [100 x i32], [100 x i32]* %3, i64 0, i64 64
  %40 = bitcast i32* %39 to <4 x i32>*
  store <4 x i32> <i32 1, i32 1, i32 1, i32 1>, <4 x i32>* %40, align 16, !tbaa !5
  %41 = getelementptr inbounds [100 x i32], [100 x i32]* %3, i64 0, i64 68
  %42 = bitcast i32* %41 to <4 x i32>*
  store <4 x i32> <i32 1, i32 1, i32 1, i32 1>, <4 x i32>* %42, align 16, !tbaa !5
  %43 = getelementptr inbounds [100 x i32], [100 x i32]* %3, i64 0, i64 72
  %44 = bitcast i32* %43 to <4 x i32>*
  store <4 x i32> <i32 1, i32 1, i32 1, i32 1>, <4 x i32>* %44, align 16, !tbaa !5
  %45 = getelementptr inbounds [100 x i32], [100 x i32]* %3, i64 0, i64 76
  %46 = bitcast i32* %45 to <4 x i32>*
  store <4 x i32> <i32 1, i32 1, i32 1, i32 1>, <4 x i32>* %46, align 16, !tbaa !5
  %47 = getelementptr inbounds [100 x i32], [100 x i32]* %3, i64 0, i64 80
  %48 = bitcast i32* %47 to <4 x i32>*
  store <4 x i32> <i32 1, i32 1, i32 1, i32 1>, <4 x i32>* %48, align 16, !tbaa !5
  %49 = getelementptr inbounds [100 x i32], [100 x i32]* %3, i64 0, i64 84
  %50 = bitcast i32* %49 to <4 x i32>*
  store <4 x i32> <i32 1, i32 1, i32 1, i32 1>, <4 x i32>* %50, align 16, !tbaa !5
  %51 = getelementptr inbounds [100 x i32], [100 x i32]* %3, i64 0, i64 88
  %52 = bitcast i32* %51 to <4 x i32>*
  store <4 x i32> <i32 1, i32 1, i32 1, i32 1>, <4 x i32>* %52, align 16, !tbaa !5
  %53 = getelementptr inbounds [100 x i32], [100 x i32]* %3, i64 0, i64 92
  %54 = bitcast i32* %53 to <4 x i32>*
  store <4 x i32> <i32 1, i32 1, i32 1, i32 1>, <4 x i32>* %54, align 16, !tbaa !5
  %55 = getelementptr inbounds [100 x i32], [100 x i32]* %3, i64 0, i64 96
  %56 = bitcast i32* %55 to <4 x i32>*
  store <4 x i32> <i32 1, i32 1, i32 1, i32 1>, <4 x i32>* %56, align 16, !tbaa !5
  %57 = load i32, i32* %1, align 4, !tbaa !5
  %58 = icmp slt i32 %57, 3
  br i1 %58, label %140, label %59

59:                                               ; preds = %0
  %60 = add nsw i32 %57, -3
  %61 = lshr i32 %60, 1
  %62 = add nuw nsw i32 %61, 1
  %63 = zext i32 %62 to i64
  %64 = icmp ult i32 %60, 14
  br i1 %64, label %130, label %65

65:                                               ; preds = %59
  %66 = and i64 %63, 2147483640
  %67 = trunc i64 %66 to i32
  %68 = shl nuw i32 %67, 1
  %69 = or i32 %68, 3
  %70 = add nsw i64 %66, -8
  %71 = lshr exact i64 %70, 3
  %72 = add nuw nsw i64 %71, 1
  %73 = and i64 %72, 3
  %74 = icmp ult i64 %70, 24
  br i1 %74, label %111, label %75

75:                                               ; preds = %65
  %76 = and i64 %72, 4611686018427387900
  br label %77

77:                                               ; preds = %77, %75
  %78 = phi i64 [ 0, %75 ], [ %107, %77 ]
  %79 = phi <4 x i32> [ <i32 3, i32 5, i32 7, i32 9>, %75 ], [ %108, %77 ]
  %80 = phi i64 [ %76, %75 ], [ %109, %77 ]
  %81 = add <4 x i32> %79, <i32 8, i32 8, i32 8, i32 8>
  %82 = getelementptr inbounds [100 x i32], [100 x i32]* %2, i64 0, i64 %78
  %83 = bitcast i32* %82 to <4 x i32>*
  store <4 x i32> %79, <4 x i32>* %83, align 16, !tbaa !5
  %84 = getelementptr inbounds i32, i32* %82, i64 4
  %85 = bitcast i32* %84 to <4 x i32>*
  store <4 x i32> %81, <4 x i32>* %85, align 16, !tbaa !5
  %86 = or i64 %78, 8
  %87 = add <4 x i32> %79, <i32 16, i32 16, i32 16, i32 16>
  %88 = add <4 x i32> %79, <i32 24, i32 24, i32 24, i32 24>
  %89 = getelementptr inbounds [100 x i32], [100 x i32]* %2, i64 0, i64 %86
  %90 = bitcast i32* %89 to <4 x i32>*
  store <4 x i32> %87, <4 x i32>* %90, align 16, !tbaa !5
  %91 = getelementptr inbounds i32, i32* %89, i64 4
  %92 = bitcast i32* %91 to <4 x i32>*
  store <4 x i32> %88, <4 x i32>* %92, align 16, !tbaa !5
  %93 = or i64 %78, 16
  %94 = add <4 x i32> %79, <i32 32, i32 32, i32 32, i32 32>
  %95 = add <4 x i32> %79, <i32 40, i32 40, i32 40, i32 40>
  %96 = getelementptr inbounds [100 x i32], [100 x i32]* %2, i64 0, i64 %93
  %97 = bitcast i32* %96 to <4 x i32>*
  store <4 x i32> %94, <4 x i32>* %97, align 16, !tbaa !5
  %98 = getelementptr inbounds i32, i32* %96, i64 4
  %99 = bitcast i32* %98 to <4 x i32>*
  store <4 x i32> %95, <4 x i32>* %99, align 16, !tbaa !5
  %100 = or i64 %78, 24
  %101 = add <4 x i32> %79, <i32 48, i32 48, i32 48, i32 48>
  %102 = add <4 x i32> %79, <i32 56, i32 56, i32 56, i32 56>
  %103 = getelementptr inbounds [100 x i32], [100 x i32]* %2, i64 0, i64 %100
  %104 = bitcast i32* %103 to <4 x i32>*
  store <4 x i32> %101, <4 x i32>* %104, align 16, !tbaa !5
  %105 = getelementptr inbounds i32, i32* %103, i64 4
  %106 = bitcast i32* %105 to <4 x i32>*
  store <4 x i32> %102, <4 x i32>* %106, align 16, !tbaa !5
  %107 = add nuw i64 %78, 32
  %108 = add <4 x i32> %79, <i32 64, i32 64, i32 64, i32 64>
  %109 = add i64 %80, -4
  %110 = icmp eq i64 %109, 0
  br i1 %110, label %111, label %77, !llvm.loop !9

111:                                              ; preds = %77, %65
  %112 = phi i64 [ 0, %65 ], [ %107, %77 ]
  %113 = phi <4 x i32> [ <i32 3, i32 5, i32 7, i32 9>, %65 ], [ %108, %77 ]
  %114 = icmp eq i64 %73, 0
  br i1 %114, label %128, label %115

115:                                              ; preds = %111, %115
  %116 = phi i64 [ %124, %115 ], [ %112, %111 ]
  %117 = phi <4 x i32> [ %125, %115 ], [ %113, %111 ]
  %118 = phi i64 [ %126, %115 ], [ %73, %111 ]
  %119 = add <4 x i32> %117, <i32 8, i32 8, i32 8, i32 8>
  %120 = getelementptr inbounds [100 x i32], [100 x i32]* %2, i64 0, i64 %116
  %121 = bitcast i32* %120 to <4 x i32>*
  store <4 x i32> %117, <4 x i32>* %121, align 16, !tbaa !5
  %122 = getelementptr inbounds i32, i32* %120, i64 4
  %123 = bitcast i32* %122 to <4 x i32>*
  store <4 x i32> %119, <4 x i32>* %123, align 16, !tbaa !5
  %124 = add nuw i64 %116, 8
  %125 = add <4 x i32> %117, <i32 16, i32 16, i32 16, i32 16>
  %126 = add i64 %118, -1
  %127 = icmp eq i64 %126, 0
  br i1 %127, label %128, label %115, !llvm.loop !12

128:                                              ; preds = %115, %111
  %129 = icmp eq i64 %66, %63
  br i1 %129, label %140, label %130

130:                                              ; preds = %59, %128
  %131 = phi i64 [ 0, %59 ], [ %66, %128 ]
  %132 = phi i32 [ 3, %59 ], [ %69, %128 ]
  br label %133

133:                                              ; preds = %130, %133
  %134 = phi i64 [ %136, %133 ], [ %131, %130 ]
  %135 = phi i32 [ %138, %133 ], [ %132, %130 ]
  %136 = add nuw nsw i64 %134, 1
  %137 = getelementptr inbounds [100 x i32], [100 x i32]* %2, i64 0, i64 %134
  store i32 %135, i32* %137, align 4, !tbaa !5
  %138 = add nuw nsw i32 %135, 2
  %139 = icmp eq i64 %136, %63
  br i1 %139, label %140, label %133, !llvm.loop !14

140:                                              ; preds = %133, %128, %0
  br label %141

141:                                              ; preds = %225, %140
  %142 = phi i64 [ 0, %140 ], [ %226, %225 ]
  %143 = getelementptr inbounds [100 x i32], [100 x i32]* %2, i64 0, i64 %142
  %144 = load i32, i32* %143, align 4, !tbaa !5
  %145 = icmp eq i32 %144, 0
  br i1 %145, label %151, label %146

146:                                              ; preds = %141
  %147 = add nuw nsw i64 %142, 1
  %148 = getelementptr inbounds [100 x i32], [100 x i32]* %2, i64 0, i64 %147
  %149 = load i32, i32* %148, align 4, !tbaa !5
  %150 = icmp eq i32 %149, 0
  br i1 %150, label %151, label %210

151:                                              ; preds = %220, %215, %210, %146, %141
  %152 = phi i64 [ %142, %141 ], [ %147, %146 ], [ %211, %210 ], [ %216, %215 ], [ %221, %220 ]
  %153 = trunc i64 %152 to i32
  %154 = icmp eq i32 %153, 0
  br i1 %154, label %207, label %155

155:                                              ; preds = %225, %151
  %156 = phi i32 [ %153, %151 ], [ 100, %225 ]
  %157 = zext i32 %156 to i64
  br label %163

158:                                              ; preds = %181
  %159 = icmp sgt i32 %156, 1
  br i1 %159, label %160, label %207

160:                                              ; preds = %158
  %161 = add nsw i32 %156, -1
  %162 = zext i32 %161 to i64
  br label %184

163:                                              ; preds = %155, %181
  %164 = phi i64 [ 0, %155 ], [ %182, %181 ]
  %165 = getelementptr inbounds [100 x i32], [100 x i32]* %2, i64 0, i64 %164
  %166 = load i32, i32* %165, align 4, !tbaa !5
  %167 = sitofp i32 %166 to double
  %168 = call double @sqrt(double %167) #6
  %169 = fadd double %168, 1.000000e+00
  %170 = fptosi double %169 to i32
  %171 = icmp slt i32 %170, 2
  br i1 %171, label %181, label %175

172:                                              ; preds = %175
  %173 = add nuw i32 %176, 1
  %174 = icmp eq i32 %176, %170
  br i1 %174, label %181, label %175, !llvm.loop !16

175:                                              ; preds = %163, %172
  %176 = phi i32 [ %173, %172 ], [ 2, %163 ]
  %177 = srem i32 %166, %176
  %178 = icmp eq i32 %177, 0
  br i1 %178, label %179, label %172

179:                                              ; preds = %175
  %180 = getelementptr inbounds [100 x i32], [100 x i32]* %3, i64 0, i64 %164
  store i32 0, i32* %180, align 4, !tbaa !5
  br label %181

181:                                              ; preds = %172, %163, %179
  %182 = add nuw nsw i64 %164, 1
  %183 = icmp eq i64 %182, %157
  br i1 %183, label %158, label %163, !llvm.loop !17

184:                                              ; preds = %160, %202
  %185 = phi i64 [ 0, %160 ], [ %190, %202 ]
  %186 = phi i32 [ 0, %160 ], [ %203, %202 ]
  %187 = getelementptr inbounds [100 x i32], [100 x i32]* %3, i64 0, i64 %185
  %188 = load i32, i32* %187, align 4, !tbaa !5
  %189 = icmp eq i32 %188, 1
  %190 = add nuw nsw i64 %185, 1
  br i1 %189, label %191, label %202

191:                                              ; preds = %184
  %192 = getelementptr inbounds [100 x i32], [100 x i32]* %3, i64 0, i64 %190
  %193 = load i32, i32* %192, align 4, !tbaa !5
  %194 = icmp eq i32 %193, 1
  br i1 %194, label %195, label %202

195:                                              ; preds = %191
  %196 = add nsw i32 %186, 1
  %197 = getelementptr inbounds [100 x i32], [100 x i32]* %2, i64 0, i64 %185
  %198 = load i32, i32* %197, align 4, !tbaa !5
  %199 = getelementptr inbounds [100 x i32], [100 x i32]* %2, i64 0, i64 %190
  %200 = load i32, i32* %199, align 4, !tbaa !5
  %201 = call i32 (i8*, ...) @printf(i8* nonnull dereferenceable(1) getelementptr inbounds ([7 x i8], [7 x i8]* @.str.1, i64 0, i64 0), i32 %198, i32 %200)
  br label %202

202:                                              ; preds = %184, %191, %195
  %203 = phi i32 [ %186, %191 ], [ %196, %195 ], [ %186, %184 ]
  %204 = icmp eq i64 %190, %162
  br i1 %204, label %205, label %184, !llvm.loop !18

205:                                              ; preds = %202
  %206 = icmp eq i32 %203, 0
  br i1 %206, label %207, label %209

207:                                              ; preds = %151, %158, %205
  %208 = call i32 @puts(i8* nonnull dereferenceable(1) getelementptr inbounds ([6 x i8], [6 x i8]* @str, i64 0, i64 0))
  br label %209

209:                                              ; preds = %207, %205
  call void @llvm.lifetime.end.p0i8(i64 400, i8* nonnull %7) #6
  call void @llvm.lifetime.end.p0i8(i64 400, i8* nonnull %6) #6
  call void @llvm.lifetime.end.p0i8(i64 4, i8* nonnull %4) #6
  ret i32 0

210:                                              ; preds = %146
  %211 = add nuw nsw i64 %142, 2
  %212 = getelementptr inbounds [100 x i32], [100 x i32]* %2, i64 0, i64 %211
  %213 = load i32, i32* %212, align 4, !tbaa !5
  %214 = icmp eq i32 %213, 0
  br i1 %214, label %151, label %215

215:                                              ; preds = %210
  %216 = add nuw nsw i64 %142, 3
  %217 = getelementptr inbounds [100 x i32], [100 x i32]* %2, i64 0, i64 %216
  %218 = load i32, i32* %217, align 4, !tbaa !5
  %219 = icmp eq i32 %218, 0
  br i1 %219, label %151, label %220

220:                                              ; preds = %215
  %221 = add nuw nsw i64 %142, 4
  %222 = getelementptr inbounds [100 x i32], [100 x i32]* %2, i64 0, i64 %221
  %223 = load i32, i32* %222, align 4, !tbaa !5
  %224 = icmp eq i32 %223, 0
  br i1 %224, label %151, label %225

225:                                              ; preds = %220
  %226 = add nuw nsw i64 %142, 5
  %227 = icmp eq i64 %226, 100
  br i1 %227, label %155, label %141, !llvm.loop !19
}

; Function Attrs: argmemonly mustprogress nofree nosync nounwind willreturn
declare void @llvm.lifetime.start.p0i8(i64 immarg, i8* nocapture) #1

; Function Attrs: nofree nounwind
declare noundef i32 @__isoc99_scanf(i8* nocapture noundef readonly, ...) local_unnamed_addr #2

; Function Attrs: argmemonly mustprogress nofree nounwind willreturn writeonly
declare void @llvm.memset.p0i8.i64(i8* nocapture writeonly, i8, i64, i1 immarg) #3

; Function Attrs: mustprogress nofree nounwind willreturn
declare double @sqrt(double) local_unnamed_addr #4

; Function Attrs: nofree nounwind
declare noundef i32 @printf(i8* nocapture noundef readonly, ...) local_unnamed_addr #2

; Function Attrs: argmemonly mustprogress nofree nosync nounwind willreturn
declare void @llvm.lifetime.end.p0i8(i64 immarg, i8* nocapture) #1

; Function Attrs: nofree nounwind
declare noundef i32 @puts(i8* nocapture noundef readonly) local_unnamed_addr #5


!llvm.module.flags = !{!0, !1, !2, !3}
!llvm.ident = !{!4}

!0 = !{i32 1, !"wchar_size", i32 4}
!1 = !{i32 7, !"PIC Level", i32 2}
!2 = !{i32 7, !"PIE Level", i32 2}
!3 = !{i32 7, !"uwtable", i32 1}
!4 = !{!"clang version 13.0.0"}
!5 = !{!6, !6, i64 0}
!6 = !{!"int", !7, i64 0}
!7 = !{!"omnipotent char", !8, i64 0}
!8 = !{!"Simple C/C++ TBAA"}
!9 = distinct !{!9, !10, !11}
!10 = !{!"llvm.loop.mustprogress"}
!11 = !{!"llvm.loop.isvectorized", i32 1}
!12 = distinct !{!12, !13}
!13 = !{!"llvm.loop.unroll.disable"}
!14 = distinct !{!14, !10, !15, !11}
!15 = !{!"llvm.loop.unroll.runtime.disable"}
!16 = distinct !{!16, !10}
!17 = distinct !{!17, !10}
!18 = distinct !{!18, !10}
!19 = distinct !{!19, !10}
